; Function Attrs: mustprogress nounwind uwtable
define hidden { i64, i8 } @_ZN6hermes6parser10JSONParser5parseEv(ptr noundef nonnull align 8 dereferenceable(1144) %this) local_unnamed_addr #1 align 2 {
entry:
  %lexer_ = getelementptr inbounds i8, ptr %this, i64 8
  %call = tail call noundef ptr @_ZN6hermes6parser7JSLexer7advanceENS1_14GrammarContextE(ptr noundef nonnull align 8 dereferenceable(1128) %lexer_, i32 noundef 0) #18
  %call2 = tail call { i64, i8 } @_ZN6hermes6parser10JSONParser10parseValueEv(ptr noundef nonnull align 8 dereferenceable(1144) %this)
  %0 = extractvalue { i64, i8 } %call2, 1
  %1 = and i8 %0, 1
  %tobool.i.not = icmp eq i8 %1, 0
  br i1 %tobool.i.not, label %return, label %if.end

if.end:                                           ; preds = %entry
  %2 = load ptr, ptr %lexer_, align 8
  %messageCount_.i.i = getelementptr inbounds i8, ptr %2, i64 296
  %3 = load i32, ptr %messageCount_.i.i, align 4
  %cmp.not = icmp eq i32 %3, 0
  %spec.select = zext i1 %cmp.not to i8
  br label %return

return:                                           ; preds = %if.end, %entry
  %retval.sroa.2.0 = phi i8 [ 0, %entry ], [ %spec.select, %if.end ]
  %.fca.1.insert = insertvalue { i64, i8 } %call2, i8 %retval.sroa.2.0, 1
  ret { i64, i8 } %.fca.1.insert
}